target datalayout = "e-m:e-p270:32:32-p271:32:32-p272:64:64-i64:64-i128:128-f80:128-n8:16:32:64-S128"
target triple = "x86_64-pc-linux-gnu"

; Function Attrs: inlinehint mustprogress nounwind uwtable
define internal noundef signext i8 @_ZL16isLabelSeparatorDs(i16 noundef zeroext %0) #1 {
  %2 = alloca i8, align 1
  %3 = alloca i16, align 2
  store i16 %0, ptr %3, align 2, !tbaa !20
  %4 = load i16, ptr %3, align 2, !tbaa !20
  %5 = zext i16 %4 to i32
  switch i32 %5, label %7 [
    i32 46, label %6
    i32 12290, label %6
    i32 65294, label %6
    i32 65377, label %6
  ]

6:                                                ; preds = %1, %1, %1, %1
  store i8 1, ptr %2, align 1
  br label %8

7:                                                ; preds = %1
  store i8 0, ptr %2, align 1
  br label %8

8:                                                ; preds = %7, %6
  %9 = load i8, ptr %2, align 1
  ret i8 %9
}

; Function Attrs: inlinehint mustprogress uwtable
define internal noundef i32 @_ZL16getNextSeparatorPDsiPS_Pa(ptr noundef %0, i32 noundef %1, ptr noundef %2, ptr noundef %3) #4 {
  %5 = alloca i32, align 4
  %6 = alloca ptr, align 8
  %7 = alloca i32, align 4
  %8 = alloca ptr, align 8
  %9 = alloca ptr, align 8
  %10 = alloca i32, align 4
  %11 = alloca i32, align 4
  %12 = alloca i32, align 4
  store ptr %0, ptr %6, align 8, !tbaa !3
  store i32 %1, ptr %7, align 4, !tbaa !8
  store ptr %2, ptr %8, align 8, !tbaa !28
  store ptr %3, ptr %9, align 8, !tbaa !17
  %13 = load i32, ptr %7, align 4, !tbaa !8
  %14 = icmp eq i32 %13, -1
  br i1 %14, label %15, label %53

15:                                               ; preds = %4
  call void @llvm.lifetime.start.p0(i64 4, ptr %10) #6
  store i32 0, ptr %10, align 4, !tbaa !8
  br label %16

16:                                               ; preds = %49, %15
  %17 = load ptr, ptr %6, align 8, !tbaa !3
  %18 = load i32, ptr %10, align 4, !tbaa !8
  %19 = sext i32 %18 to i64
  %20 = getelementptr inbounds i16, ptr %17, i64 %19
  %21 = load i16, ptr %20, align 2, !tbaa !20
  %22 = zext i16 %21 to i32
  %23 = icmp eq i32 %22, 0
  br i1 %23, label %24, label %32

24:                                               ; preds = %16
  %25 = load ptr, ptr %6, align 8, !tbaa !3
  %26 = load i32, ptr %10, align 4, !tbaa !8
  %27 = sext i32 %26 to i64
  %28 = getelementptr inbounds i16, ptr %25, i64 %27
  %29 = load ptr, ptr %8, align 8, !tbaa !28
  store ptr %28, ptr %29, align 8, !tbaa !3
  %30 = load ptr, ptr %9, align 8, !tbaa !17
  store i8 1, ptr %30, align 1, !tbaa !19
  %31 = load i32, ptr %10, align 4, !tbaa !8
  store i32 %31, ptr %5, align 4
  store i32 1, ptr %11, align 4
  br label %52

32:                                               ; preds = %16
  %33 = load ptr, ptr %6, align 8, !tbaa !3
  %34 = load i32, ptr %10, align 4, !tbaa !8
  %35 = sext i32 %34 to i64
  %36 = getelementptr inbounds i16, ptr %33, i64 %35
  %37 = load i16, ptr %36, align 2, !tbaa !20
  %38 = call noundef signext i8 @_ZL16isLabelSeparatorDs(i16 noundef zeroext %37)
  %39 = icmp ne i8 %38, 0
  br i1 %39, label %40, label %48

40:                                               ; preds = %32
  %41 = load ptr, ptr %6, align 8, !tbaa !3
  %42 = load i32, ptr %10, align 4, !tbaa !8
  %43 = add nsw i32 %42, 1
  %44 = sext i32 %43 to i64
  %45 = getelementptr inbounds i16, ptr %41, i64 %44
  %46 = load ptr, ptr %8, align 8, !tbaa !28
  store ptr %45, ptr %46, align 8, !tbaa !3
  %47 = load i32, ptr %10, align 4, !tbaa !8
  store i32 %47, ptr %5, align 4
  store i32 1, ptr %11, align 4
  br label %52

48:                                               ; preds = %32
  br label %49

49:                                               ; preds = %48
  %50 = load i32, ptr %10, align 4, !tbaa !8
  %51 = add nsw i32 %50, 1
  store i32 %51, ptr %10, align 4, !tbaa !8
  br label %16, !llvm.loop !31

52:                                               ; preds = %40, %24
  call void @llvm.lifetime.end.p0(i64 4, ptr %10) #6
  br label %87

53:                                               ; preds = %4
  call void @llvm.lifetime.start.p0(i64 4, ptr %12) #6
  store i32 0, ptr %12, align 4, !tbaa !8
  br label %54

54:                                               ; preds = %75, %53
  %55 = load i32, ptr %12, align 4, !tbaa !8
  %56 = load i32, ptr %7, align 4, !tbaa !8
  %57 = icmp slt i32 %55, %56
  br i1 %57, label %58, label %78

58:                                               ; preds = %54
  %59 = load ptr, ptr %6, align 8, !tbaa !3
  %60 = load i32, ptr %12, align 4, !tbaa !8
  %61 = sext i32 %60 to i64
  %62 = getelementptr inbounds i16, ptr %59, i64 %61
  %63 = load i16, ptr %62, align 2, !tbaa !20
  %64 = call noundef signext i8 @_ZL16isLabelSeparatorDs(i16 noundef zeroext %63)
  %65 = icmp ne i8 %64, 0
  br i1 %65, label %66, label %74

66:                                               ; preds = %58
  %67 = load ptr, ptr %6, align 8, !tbaa !3
  %68 = load i32, ptr %12, align 4, !tbaa !8
  %69 = add nsw i32 %68, 1
  %70 = sext i32 %69 to i64
  %71 = getelementptr inbounds i16, ptr %67, i64 %70
  %72 = load ptr, ptr %8, align 8, !tbaa !28
  store ptr %71, ptr %72, align 8, !tbaa !3
  %73 = load i32, ptr %12, align 4, !tbaa !8
  store i32 %73, ptr %5, align 4
  store i32 1, ptr %11, align 4
  br label %86

74:                                               ; preds = %58
  br label %75

75:                                               ; preds = %74
  %76 = load i32, ptr %12, align 4, !tbaa !8
  %77 = add nsw i32 %76, 1
  store i32 %77, ptr %12, align 4, !tbaa !8
  br label %54, !llvm.loop !32

78:                                               ; preds = %54
  %79 = load ptr, ptr %6, align 8, !tbaa !3
  %80 = load i32, ptr %7, align 4, !tbaa !8
  %81 = sext i32 %80 to i64
  %82 = getelementptr inbounds i16, ptr %79, i64 %81
  %83 = load ptr, ptr %8, align 8, !tbaa !28
  store ptr %82, ptr %83, align 8, !tbaa !3
  %84 = load ptr, ptr %9, align 8, !tbaa !17
  store i8 1, ptr %84, align 1, !tbaa !19
  %85 = load i32, ptr %12, align 4, !tbaa !8
  store i32 %85, ptr %5, align 4
  store i32 1, ptr %11, align 4
  br label %86

86:                                               ; preds = %78, %66
  call void @llvm.lifetime.end.p0(i64 4, ptr %12) #6
  br label %87

87:                                               ; preds = %86, %52
  %88 = load i32, ptr %5, align 4
  ret i32 %88
}

; Function Attrs: inlinehint mustprogress nounwind uwtable
define internal noundef signext i8 @_ZL9U_FAILURE10UErrorCode(i32 noundef %0) #1 {
  %2 = alloca i32, align 4
  store i32 %0, ptr %2, align 4, !tbaa !13
  %3 = load i32, ptr %2, align 4, !tbaa !13
  %4 = icmp sgt i32 %3, 0
  %5 = zext i1 %4 to i8
  ret i8 %5
}

; Function Attrs: mustprogress uwtable
define i32 @uidna_IDNToUnicode_77(ptr noundef %0, i32 noundef %1, ptr noundef %2, i32 noundef %3, i32 noundef %4, ptr noundef %5, ptr noundef %6) #0 {
  %8 = alloca i32, align 4
  %9 = alloca ptr, align 8
  %10 = alloca i32, align 4
  %11 = alloca ptr, align 8
  %12 = alloca i32, align 4
  %13 = alloca i32, align 4
  %14 = alloca ptr, align 8
  %15 = alloca ptr, align 8
  %16 = alloca i32, align 4
  %17 = alloca ptr, align 8
  %18 = alloca i32, align 4
  %19 = alloca ptr, align 8
  %20 = alloca ptr, align 8
  %21 = alloca ptr, align 8
  %22 = alloca i32, align 4
  %23 = alloca i32, align 4
  %24 = alloca i32, align 4
  %25 = alloca i32, align 4
  %26 = alloca i8, align 1
  store ptr %0, ptr %9, align 8, !tbaa !3
  store i32 %1, ptr %10, align 4, !tbaa !8
  store ptr %2, ptr %11, align 8, !tbaa !3
  store i32 %3, ptr %12, align 4, !tbaa !8
  store i32 %4, ptr %13, align 4, !tbaa !8
  store ptr %5, ptr %14, align 8, !tbaa !10
  store ptr %6, ptr %15, align 8, !tbaa !12
  %27 = load ptr, ptr %15, align 8, !tbaa !12
  %28 = icmp eq ptr %27, null
  br i1 %28, label %34, label %29

29:                                               ; preds = %7
  %30 = load ptr, ptr %15, align 8, !tbaa !12
  %31 = load i32, ptr %30, align 4, !tbaa !13
  %32 = call noundef signext i8 @_ZL9U_FAILURE10UErrorCode(i32 noundef %31)
  %33 = icmp ne i8 %32, 0
  br i1 %33, label %34, label %35

34:                                               ; preds = %29, %7
  store i32 0, ptr %8, align 4
  br label %154

35:                                               ; preds = %29
  %36 = load ptr, ptr %9, align 8, !tbaa !3
  %37 = icmp eq ptr %36, null
  br i1 %37, label %50, label %38

38:                                               ; preds = %35
  %39 = load i32, ptr %10, align 4, !tbaa !8
  %40 = icmp slt i32 %39, -1
  br i1 %40, label %50, label %41

41:                                               ; preds = %38
  %42 = load i32, ptr %12, align 4, !tbaa !8
  %43 = icmp slt i32 %42, 0
  br i1 %43, label %50, label %44

44:                                               ; preds = %41
  %45 = load ptr, ptr %11, align 8, !tbaa !3
  %46 = icmp ne ptr %45, null
  br i1 %46, label %52, label %47

47:                                               ; preds = %44
  %48 = load i32, ptr %12, align 4, !tbaa !8
  %49 = icmp sgt i32 %48, 0
  br i1 %49, label %50, label %52

50:                                               ; preds = %47, %41, %38, %35
  %51 = load ptr, ptr %15, align 8, !tbaa !12
  store i32 1, ptr %51, align 4, !tbaa !13
  store i32 0, ptr %8, align 4
  br label %154

52:                                               ; preds = %47, %44
  call void @llvm.lifetime.start.p0(i64 4, ptr %16) #6
  store i32 0, ptr %16, align 4, !tbaa !8
  call void @llvm.lifetime.start.p0(i64 8, ptr %17) #6
  %53 = load ptr, ptr %15, align 8, !tbaa !12
  %54 = call ptr @usprep_openByType_77(i32 noundef 0, ptr noundef %53)
  store ptr %54, ptr %17, align 8, !tbaa !15
  %55 = load ptr, ptr %15, align 8, !tbaa !12
  %56 = load i32, ptr %55, align 4, !tbaa !13
  %57 = call noundef signext i8 @_ZL9U_FAILURE10UErrorCode(i32 noundef %56)
  %58 = icmp ne i8 %57, 0
  br i1 %58, label %59, label %60

59:                                               ; preds = %52
  store i32 0, ptr %8, align 4
  store i32 1, ptr %18, align 4
  br label %153

60:                                               ; preds = %52
  call void @llvm.lifetime.start.p0(i64 8, ptr %19) #6
  %61 = load ptr, ptr %9, align 8, !tbaa !3
  store ptr %61, ptr %19, align 8, !tbaa !3
  call void @llvm.lifetime.start.p0(i64 8, ptr %20) #6
  %62 = load ptr, ptr %9, align 8, !tbaa !3
  store ptr %62, ptr %20, align 8, !tbaa !3
  call void @llvm.lifetime.start.p0(i64 8, ptr %21) #6
  %63 = load ptr, ptr %11, align 8, !tbaa !3
  store ptr %63, ptr %21, align 8, !tbaa !3
  call void @llvm.lifetime.start.p0(i64 4, ptr %22) #6
  %64 = load i32, ptr %10, align 4, !tbaa !8
  store i32 %64, ptr %22, align 4, !tbaa !8
  call void @llvm.lifetime.start.p0(i64 4, ptr %23) #6
  %65 = load i32, ptr %12, align 4, !tbaa !8
  store i32 %65, ptr %23, align 4, !tbaa !8
  call void @llvm.lifetime.start.p0(i64 4, ptr %24) #6
  store i32 0, ptr %24, align 4, !tbaa !8
  call void @llvm.lifetime.start.p0(i64 4, ptr %25) #6
  store i32 0, ptr %25, align 4, !tbaa !8
  call void @llvm.lifetime.start.p0(i64 1, ptr %26) #6
  store i8 0, ptr %26, align 1, !tbaa !19
  br label %66

66:                                               ; preds = %140, %60
  %67 = load ptr, ptr %20, align 8, !tbaa !3
  %68 = load i32, ptr %22, align 4, !tbaa !8
  %69 = call noundef i32 @_ZL16getNextSeparatorPDsiPS_Pa(ptr noundef %67, i32 noundef %68, ptr noundef %19, ptr noundef %26)
  store i32 %69, ptr %24, align 4, !tbaa !8
  %70 = load ptr, ptr %20, align 8, !tbaa !3
  %71 = load i32, ptr %24, align 4, !tbaa !8
  %72 = load ptr, ptr %21, align 8, !tbaa !3
  %73 = load i32, ptr %23, align 4, !tbaa !8
  %74 = load i32, ptr %13, align 4, !tbaa !8
  %75 = load ptr, ptr %17, align 8, !tbaa !15
  %76 = load ptr, ptr %14, align 8, !tbaa !10
  %77 = load ptr, ptr %15, align 8, !tbaa !12
  %78 = call noundef i32 @_ZL19_internal_toUnicodePKDsiPDsiiP18UStringPrepProfileP11UParseErrorP10UErrorCode(ptr noundef %70, i32 noundef %71, ptr noundef %72, i32 noundef %73, i32 noundef %74, ptr noundef %75, ptr noundef %76, ptr noundef %77)
  store i32 %78, ptr %25, align 4, !tbaa !8
  %79 = load ptr, ptr %15, align 8, !tbaa !12
  %80 = load i32, ptr %79, align 4, !tbaa !13
  %81 = icmp eq i32 %80, 15
  br i1 %81, label %82, label %84

82:                                               ; preds = %66
  %83 = load ptr, ptr %15, align 8, !tbaa !12
  store i32 0, ptr %83, align 4, !tbaa !13
  store i32 0, ptr %23, align 4, !tbaa !8
  br label %84

84:                                               ; preds = %82, %66
  %85 = load ptr, ptr %15, align 8, !tbaa !12
  %86 = load i32, ptr %85, align 4, !tbaa !13
  %87 = call noundef signext i8 @_ZL9U_FAILURE10UErrorCode(i32 noundef %86)
  %88 = icmp ne i8 %87, 0
  br i1 %88, label %89, label %90

89:                                               ; preds = %84
  br label %141

90:                                               ; preds = %84
  %91 = load i32, ptr %25, align 4, !tbaa !8
  %92 = load i32, ptr %16, align 4, !tbaa !8
  %93 = add nsw i32 %92, %91
  store i32 %93, ptr %16, align 4, !tbaa !8
  %94 = load i32, ptr %25, align 4, !tbaa !8
  %95 = load i32, ptr %23, align 4, !tbaa !8
  %96 = icmp slt i32 %94, %95
  br i1 %96, label %97, label %105

97:                                               ; preds = %90
  %98 = load ptr, ptr %21, align 8, !tbaa !3
  %99 = load i32, ptr %25, align 4, !tbaa !8
  %100 = sext i32 %99 to i64
  %101 = getelementptr inbounds i16, ptr %98, i64 %100
  store ptr %101, ptr %21, align 8, !tbaa !3
  %102 = load i32, ptr %25, align 4, !tbaa !8
  %103 = load i32, ptr %23, align 4, !tbaa !8
  %104 = sub nsw i32 %103, %102
  store i32 %104, ptr %23, align 4, !tbaa !8
  br label %106

105:                                              ; preds = %90
  store i32 0, ptr %23, align 4, !tbaa !8
  br label %106

106:                                              ; preds = %105, %97
  %107 = load i8, ptr %26, align 1, !tbaa !19
  %108 = icmp ne i8 %107, 0
  br i1 %108, label %109, label %110

109:                                              ; preds = %106
  br label %141

110:                                              ; preds = %106
  %111 = load i32, ptr %23, align 4, !tbaa !8
  %112 = icmp sgt i32 %111, 0
  br i1 %112, label %113, label %123

113:                                              ; preds = %110
  %114 = load ptr, ptr %20, align 8, !tbaa !3
  %115 = load i32, ptr %24, align 4, !tbaa !8
  %116 = sext i32 %115 to i64
  %117 = getelementptr inbounds i16, ptr %114, i64 %116
  %118 = load i16, ptr %117, align 2, !tbaa !20
  %119 = load ptr, ptr %21, align 8, !tbaa !3
  %120 = getelementptr inbounds nuw i16, ptr %119, i32 1
  store ptr %120, ptr %21, align 8, !tbaa !3
  store i16 %118, ptr %119, align 2, !tbaa !20
  %121 = load i32, ptr %23, align 4, !tbaa !8
  %122 = add nsw i32 %121, -1
  store i32 %122, ptr %23, align 4, !tbaa !8
  br label %123

123:                                              ; preds = %113, %110
  %124 = load i32, ptr %16, align 4, !tbaa !8
  %125 = add nsw i32 %124, 1
  store i32 %125, ptr %16, align 4, !tbaa !8
  %126 = load ptr, ptr %19, align 8, !tbaa !3
  store ptr %126, ptr %20, align 8, !tbaa !3
  %127 = load i32, ptr %22, align 4, !tbaa !8
  %128 = icmp sgt i32 %127, 0
  br i1 %128, label %129, label %140

129:                                              ; preds = %123
  %130 = load i32, ptr %10, align 4, !tbaa !8
  %131 = sext i32 %130 to i64
  %132 = load ptr, ptr %19, align 8, !tbaa !3
  %133 = load ptr, ptr %9, align 8, !tbaa !3
  %134 = ptrtoint ptr %132 to i64
  %135 = ptrtoint ptr %133 to i64
  %136 = sub i64 %134, %135
  %137 = sdiv exact i64 %136, 2
  %138 = sub nsw i64 %131, %137
  %139 = trunc i64 %138 to i32
  store i32 %139, ptr %22, align 4, !tbaa !8
  br label %140

140:                                              ; preds = %129, %123
  br label %66, !llvm.loop !33

141:                                              ; preds = %109, %89
  %142 = load i32, ptr %16, align 4, !tbaa !8
  %143 = icmp sgt i32 %142, 255
  br i1 %143, label %144, label %146

144:                                              ; preds = %141
  %145 = load ptr, ptr %15, align 8, !tbaa !12
  store i32 66568, ptr %145, align 4, !tbaa !13
  br label %146

146:                                              ; preds = %144, %141
  %147 = load ptr, ptr %17, align 8, !tbaa !15
  call void @usprep_close_77(ptr noundef %147)
  %148 = load ptr, ptr %11, align 8, !tbaa !3
  %149 = load i32, ptr %12, align 4, !tbaa !8
  %150 = load i32, ptr %16, align 4, !tbaa !8
  %151 = load ptr, ptr %15, align 8, !tbaa !12
  %152 = call i32 @u_terminateUChars_77(ptr noundef %148, i32 noundef %149, i32 noundef %150, ptr noundef %151)
  store i32 %152, ptr %8, align 4
  store i32 1, ptr %18, align 4
  call void @llvm.lifetime.end.p0(i64 1, ptr %26) #6
  call void @llvm.lifetime.end.p0(i64 4, ptr %25) #6
  call void @llvm.lifetime.end.p0(i64 4, ptr %24) #6
  call void @llvm.lifetime.end.p0(i64 4, ptr %23) #6
  call void @llvm.lifetime.end.p0(i64 4, ptr %22) #6
  call void @llvm.lifetime.end.p0(i64 8, ptr %21) #6
  call void @llvm.lifetime.end.p0(i64 8, ptr %20) #6
  call void @llvm.lifetime.end.p0(i64 8, ptr %19) #6
  br label %153

153:                                              ; preds = %146, %59
  call void @llvm.lifetime.end.p0(i64 8, ptr %17) #6
  call void @llvm.lifetime.end.p0(i64 4, ptr %16) #6
  br label %154

154:                                              ; preds = %153, %50, %34
  %155 = load i32, ptr %8, align 4
  ret i32 %155
}