; Function Attrs: mustprogress uwtable
define i32 @uidna_IDNToUnicode_77(ptr noundef %0, i32 noundef %1, ptr noundef %2, i32 noundef %3, i32 noundef %4, ptr noundef %5, ptr noundef %6) local_unnamed_addr #0 {
  %8 = icmp eq ptr %6, null
  br i1 %8, label %75, label %9

9:                                                ; preds = %7
  %10 = load i32, ptr %6, align 4, !tbaa !3
  %11 = icmp slt i32 %10, 1
  br i1 %11, label %12, label %75

12:                                               ; preds = %9
  %13 = icmp eq ptr %0, null
  %14 = icmp slt i32 %1, -1
  %or.cond = or i1 %13, %14
  %15 = icmp slt i32 %3, 0
  %or.cond3 = or i1 %or.cond, %15
  br i1 %or.cond3, label %19, label %16

16:                                               ; preds = %12
  %17 = icmp eq ptr %2, null
  %18 = icmp ne i32 %3, 0
  %or.cond5 = and i1 %17, %18
  br i1 %or.cond5, label %19, label %20

19:                                               ; preds = %16, %12
  store i32 1, ptr %6, align 4, !tbaa !3
  br label %75

20:                                               ; preds = %16
  %21 = tail call ptr @usprep_openByType_77(i32 noundef 0, ptr noundef nonnull %6)
  %22 = load i32, ptr %6, align 4, !tbaa !3
  %23 = icmp slt i32 %22, 1
  br i1 %23, label %.preheader, label %75

.preheader:                                       ; preds = %20
  %24 = ptrtoint ptr %0 to i64
  br label %25

25:                                               ; preds = %.preheader, %62
  %.065 = phi i32 [ %63, %62 ], [ 0, %.preheader ]
  %.062 = phi ptr [ %.077, %62 ], [ %0, %.preheader ]
  %.059 = phi ptr [ %.261, %62 ], [ %2, %.preheader ]
  %.057 = phi i32 [ %.158, %62 ], [ %1, %.preheader ]
  %.0 = phi i32 [ %.3, %62 ], [ %3, %.preheader ]
  %26 = icmp eq i32 %.057, -1
  br i1 %26, label %.preheader.i, label %.preheader39.i

.preheader39.i:                                   ; preds = %25
  %27 = icmp sgt i32 %.057, 0
  br i1 %27, label %.lr.ph.preheader.i, label %._crit_edge.i

.lr.ph.preheader.i:                               ; preds = %.preheader39.i
  %wide.trip.count.i = zext nneg i32 %.057 to i64
  br label %.lr.ph.i

.preheader.i:                                     ; preds = %25, %36
  %indvars.iv55.i = phi i64 [ %indvars.iv.next56.i, %36 ], [ 0, %25 ]
  %28 = getelementptr inbounds nuw i16, ptr %.062, i64 %indvars.iv55.i
  %29 = load i16, ptr %28, align 2, !tbaa !7
  switch i16 %29, label %36 [
    i16 0, label %30
    i16 46, label %_ZL16isLabelSeparatorDs.exit.i
    i16 12290, label %_ZL16isLabelSeparatorDs.exit.i
    i16 -242, label %_ZL16isLabelSeparatorDs.exit.i
    i16 -159, label %_ZL16isLabelSeparatorDs.exit.i
  ]

30:                                               ; preds = %.preheader.i
  %31 = getelementptr inbounds nuw i16, ptr %.062, i64 %indvars.iv55.i
  %32 = trunc nuw nsw i64 %indvars.iv55.i to i32
  br label %_ZL16getNextSeparatorPDsiPS_Pa.exit

_ZL16isLabelSeparatorDs.exit.i:                   ; preds = %.preheader.i, %.preheader.i, %.preheader.i, %.preheader.i
  %33 = getelementptr inbounds nuw i16, ptr %.062, i64 %indvars.iv55.i
  %34 = trunc nuw nsw i64 %indvars.iv55.i to i32
  %35 = getelementptr inbounds nuw i8, ptr %33, i64 2
  br label %_ZL16getNextSeparatorPDsiPS_Pa.exit

36:                                               ; preds = %.preheader.i
  %indvars.iv.next56.i = add nuw nsw i64 %indvars.iv55.i, 1
  br label %.preheader.i, !llvm.loop !16

.lr.ph.i:                                         ; preds = %42, %.lr.ph.preheader.i
  %indvars.iv.i = phi i64 [ 0, %.lr.ph.preheader.i ], [ %indvars.iv.next.i, %42 ]
  %37 = getelementptr inbounds nuw i16, ptr %.062, i64 %indvars.iv.i
  %38 = load i16, ptr %37, align 2, !tbaa !7
  switch i16 %38, label %42 [
    i16 46, label %_ZL16isLabelSeparatorDs.exit34.i
    i16 12290, label %_ZL16isLabelSeparatorDs.exit34.i
    i16 -242, label %_ZL16isLabelSeparatorDs.exit34.i
    i16 -159, label %_ZL16isLabelSeparatorDs.exit34.i
  ]

_ZL16isLabelSeparatorDs.exit34.i:                 ; preds = %.lr.ph.i, %.lr.ph.i, %.lr.ph.i, %.lr.ph.i
  %39 = getelementptr inbounds nuw i16, ptr %.062, i64 %indvars.iv.i
  %40 = trunc nuw nsw i64 %indvars.iv.i to i32
  %41 = getelementptr inbounds nuw i8, ptr %39, i64 2
  br label %_ZL16getNextSeparatorPDsiPS_Pa.exit

42:                                               ; preds = %.lr.ph.i
  %indvars.iv.next.i = add nuw nsw i64 %indvars.iv.i, 1
  %exitcond.not.i = icmp eq i64 %indvars.iv.next.i, %wide.trip.count.i
  br i1 %exitcond.not.i, label %._crit_edge.i, label %.lr.ph.i, !llvm.loop !17

._crit_edge.i:                                    ; preds = %42, %.preheader39.i
  %.0.lcssa.i = phi i32 [ 0, %.preheader39.i ], [ %.057, %42 ]
  %43 = sext i32 %.057 to i64
  %44 = getelementptr inbounds i16, ptr %.062, i64 %43
  br label %_ZL16getNextSeparatorPDsiPS_Pa.exit

_ZL16getNextSeparatorPDsiPS_Pa.exit:              ; preds = %30, %_ZL16isLabelSeparatorDs.exit.i, %_ZL16isLabelSeparatorDs.exit34.i, %._crit_edge.i
  %.077 = phi ptr [ %35, %_ZL16isLabelSeparatorDs.exit.i ], [ %31, %30 ], [ %44, %._crit_edge.i ], [ %41, %_ZL16isLabelSeparatorDs.exit34.i ]
  %.not74 = phi i1 [ true, %_ZL16isLabelSeparatorDs.exit.i ], [ false, %30 ], [ false, %._crit_edge.i ], [ true, %_ZL16isLabelSeparatorDs.exit34.i ]
  %.1.i = phi i32 [ %34, %_ZL16isLabelSeparatorDs.exit.i ], [ %32, %30 ], [ %.0.lcssa.i, %._crit_edge.i ], [ %40, %_ZL16isLabelSeparatorDs.exit34.i ]
  %45 = tail call fastcc noundef i32 @_ZL19_internal_toUnicodePKDsiPDsiiP18UStringPrepProfileP11UParseErrorP10UErrorCode(ptr noundef %.062, i32 noundef %.1.i, ptr noundef %.059, i32 noundef %.0, i32 noundef %4, ptr noundef %21, ptr noundef %5, ptr noundef %6)
  %46 = load i32, ptr %6, align 4, !tbaa !3
  %47 = icmp eq i32 %46, 15
  br i1 %47, label %.thread, label %48

.thread:                                          ; preds = %_ZL16getNextSeparatorPDsiPS_Pa.exit
  store i32 0, ptr %6, align 4, !tbaa !3
  br label %50

48:                                               ; preds = %_ZL16getNextSeparatorPDsiPS_Pa.exit
  %49 = icmp slt i32 %46, 1
  br i1 %49, label %50, label %70

50:                                               ; preds = %.thread, %48
  %.189 = phi i32 [ 0, %.thread ], [ %.0, %48 ]
  %51 = add nsw i32 %45, %.065
  %52 = icmp slt i32 %45, %.189
  %53 = sub nsw i32 %.189, %45
  %narrow = select i1 %52, i32 %45, i32 0
  %.160.idx = sext i32 %narrow to i64
  %.160 = getelementptr inbounds i16, ptr %.059, i64 %.160.idx
  %.2 = select i1 %52, i32 %53, i32 0
  br i1 %.not74, label %54, label %70

54:                                               ; preds = %50
  %55 = icmp sgt i32 %.2, 0
  br i1 %55, label %56, label %62

56:                                               ; preds = %54
  %57 = sext i32 %.1.i to i64
  %58 = getelementptr inbounds i16, ptr %.062, i64 %57
  %59 = load i16, ptr %58, align 2, !tbaa !7
  %60 = getelementptr inbounds nuw i8, ptr %.160, i64 2
  store i16 %59, ptr %.160, align 2, !tbaa !7
  %61 = add nsw i32 %.2, -1
  br label %62

62:                                               ; preds = %56, %54
  %.261 = phi ptr [ %60, %56 ], [ %.160, %54 ]
  %.3 = phi i32 [ %61, %56 ], [ %.2, %54 ]
  %63 = add nsw i32 %51, 1
  %64 = icmp sgt i32 %.057, 0
  %65 = ptrtoint ptr %.077 to i64
  %66 = sub i64 %65, %24
  %67 = lshr exact i64 %66, 1
  %68 = trunc i64 %67 to i32
  %69 = sub i32 %1, %68
  %.158 = select i1 %64, i32 %69, i32 %.057
  br label %25, !llvm.loop !19

70:                                               ; preds = %50, %48
  %.166 = phi i32 [ %.065, %48 ], [ %51, %50 ]
  %71 = icmp sgt i32 %.166, 255
  br i1 %71, label %72, label %73

72:                                               ; preds = %70
  store i32 66568, ptr %6, align 4, !tbaa !3
  br label %73

73:                                               ; preds = %72, %70
  tail call void @usprep_close_77(ptr noundef %21)
  %74 = tail call i32 @u_terminateUChars_77(ptr noundef %2, i32 noundef %3, i32 noundef %.166, ptr noundef nonnull %6)
  br label %75

75:                                               ; preds = %73, %20, %7, %9, %19
  %.063 = phi i32 [ 0, %19 ], [ 0, %9 ], [ 0, %7 ], [ %74, %73 ], [ 0, %20 ]
  ret i32 %.063
}